target datalayout = "e-m:e-p270:32:32-p271:32:32-p272:64:64-i64:64-i128:128-f80:128-n8:16:32:64-S128"
target triple = "x86_64-pc-linux-gnu"

%struct.FilterParams = type { i32, double, ptr, ptr, ptr }

; Function Attrs: nounwind uwtable
define internal void @blend_dodge_8bit(ptr noundef %0, i64 noundef %1, ptr noundef %2, i64 noundef %3, ptr noundef %4, i64 noundef %5, i64 noundef %6, i64 noundef %7, ptr noundef %8, ptr noundef %9) #0 {
  %11 = alloca ptr, align 8
  %12 = alloca i64, align 8
  %13 = alloca ptr, align 8
  %14 = alloca i64, align 8
  %15 = alloca ptr, align 8
  %16 = alloca i64, align 8
  %17 = alloca i64, align 8
  %18 = alloca i64, align 8
  %19 = alloca ptr, align 8
  %20 = alloca ptr, align 8
  %21 = alloca ptr, align 8
  %22 = alloca ptr, align 8
  %23 = alloca ptr, align 8
  %24 = alloca float, align 4
  %25 = alloca i32, align 4
  %26 = alloca i32, align 4
  %27 = alloca i32, align 4
  store ptr %0, ptr %11, align 8, !tbaa !46
  store i64 %1, ptr %12, align 8, !tbaa !88
  store ptr %2, ptr %13, align 8, !tbaa !46
  store i64 %3, ptr %14, align 8, !tbaa !88
  store ptr %4, ptr %15, align 8, !tbaa !46
  store i64 %5, ptr %16, align 8, !tbaa !88
  store i64 %6, ptr %17, align 8, !tbaa !88
  store i64 %7, ptr %18, align 8, !tbaa !88
  store ptr %8, ptr %19, align 8, !tbaa !77
  store ptr %9, ptr %20, align 8, !tbaa !89
  call void @llvm.lifetime.start.p0(i64 8, ptr %21) #12
  %28 = load ptr, ptr %11, align 8, !tbaa !46
  store ptr %28, ptr %21, align 8, !tbaa !46
  call void @llvm.lifetime.start.p0(i64 8, ptr %22) #12
  %29 = load ptr, ptr %13, align 8, !tbaa !46
  store ptr %29, ptr %22, align 8, !tbaa !46
  call void @llvm.lifetime.start.p0(i64 8, ptr %23) #12
  %30 = load ptr, ptr %15, align 8, !tbaa !46
  store ptr %30, ptr %23, align 8, !tbaa !46
  call void @llvm.lifetime.start.p0(i64 4, ptr %24) #12
  %31 = load ptr, ptr %19, align 8, !tbaa !77
  %32 = getelementptr inbounds nuw %struct.FilterParams, ptr %31, i32 0, i32 1
  %33 = load double, ptr %32, align 8, !tbaa !82
  %34 = fptrunc nsz double %33 to float
  store float %34, ptr %24, align 4, !tbaa !99
  %35 = load i64, ptr %16, align 8, !tbaa !88
  %36 = udiv i64 %35, 1
  store i64 %36, ptr %16, align 8, !tbaa !88
  %37 = load i64, ptr %12, align 8, !tbaa !88
  %38 = udiv i64 %37, 1
  store i64 %38, ptr %12, align 8, !tbaa !88
  %39 = load i64, ptr %14, align 8, !tbaa !88
  %40 = udiv i64 %39, 1
  store i64 %40, ptr %14, align 8, !tbaa !88
  call void @llvm.lifetime.start.p0(i64 4, ptr %25) #12
  store i32 0, ptr %25, align 4, !tbaa !37
  br label %41

41:                                               ; preds = %142, %10
  %42 = load i32, ptr %25, align 4, !tbaa !37
  %43 = sext i32 %42 to i64
  %44 = load i64, ptr %18, align 8, !tbaa !88
  %45 = icmp slt i64 %43, %44
  br i1 %45, label %47, label %46

46:                                               ; preds = %41
  store i32 2, ptr %26, align 4
  call void @llvm.lifetime.end.p0(i64 4, ptr %25) #12
  br label %145

47:                                               ; preds = %41
  call void @llvm.lifetime.start.p0(i64 4, ptr %27) #12
  store i32 0, ptr %27, align 4, !tbaa !37
  br label %48

48:                                               ; preds = %129, %47
  %49 = load i32, ptr %27, align 4, !tbaa !37
  %50 = sext i32 %49 to i64
  %51 = load i64, ptr %17, align 8, !tbaa !88
  %52 = icmp slt i64 %50, %51
  br i1 %52, label %54, label %53

53:                                               ; preds = %48
  store i32 5, ptr %26, align 4
  call void @llvm.lifetime.end.p0(i64 4, ptr %27) #12
  br label %132

54:                                               ; preds = %48
  %55 = load ptr, ptr %21, align 8, !tbaa !46
  %56 = load i32, ptr %27, align 4, !tbaa !37
  %57 = sext i32 %56 to i64
  %58 = getelementptr inbounds i8, ptr %55, i64 %57
  %59 = load i8, ptr %58, align 1, !tbaa !109
  %60 = zext i8 %59 to i32
  %61 = sitofp i32 %60 to float
  %62 = load ptr, ptr %21, align 8, !tbaa !46
  %63 = load i32, ptr %27, align 4, !tbaa !37
  %64 = sext i32 %63 to i64
  %65 = getelementptr inbounds i8, ptr %62, i64 %64
  %66 = load i8, ptr %65, align 1, !tbaa !109
  %67 = zext i8 %66 to i32
  %68 = icmp eq i32 %67, 255
  br i1 %68, label %69, label %76

69:                                               ; preds = %54
  %70 = load ptr, ptr %21, align 8, !tbaa !46
  %71 = load i32, ptr %27, align 4, !tbaa !37
  %72 = sext i32 %71 to i64
  %73 = getelementptr inbounds i8, ptr %70, i64 %72
  %74 = load i8, ptr %73, align 1, !tbaa !109
  %75 = zext i8 %74 to i32
  br label %112

76:                                               ; preds = %54
  %77 = load ptr, ptr %22, align 8, !tbaa !46
  %78 = load i32, ptr %27, align 4, !tbaa !37
  %79 = sext i32 %78 to i64
  %80 = getelementptr inbounds i8, ptr %77, i64 %79
  %81 = load i8, ptr %80, align 1, !tbaa !109
  %82 = zext i8 %81 to i32
  %83 = shl i32 %82, 8
  %84 = load ptr, ptr %21, align 8, !tbaa !46
  %85 = load i32, ptr %27, align 4, !tbaa !37
  %86 = sext i32 %85 to i64
  %87 = getelementptr inbounds i8, ptr %84, i64 %86
  %88 = load i8, ptr %87, align 1, !tbaa !109
  %89 = zext i8 %88 to i32
  %90 = sub nsw i32 255, %89
  %91 = sdiv i32 %83, %90
  %92 = icmp sgt i32 255, %91
  br i1 %92, label %93, label %109

93:                                               ; preds = %76
  %94 = load ptr, ptr %22, align 8, !tbaa !46
  %95 = load i32, ptr %27, align 4, !tbaa !37
  %96 = sext i32 %95 to i64
  %97 = getelementptr inbounds i8, ptr %94, i64 %96
  %98 = load i8, ptr %97, align 1, !tbaa !109
  %99 = zext i8 %98 to i32
  %100 = shl i32 %99, 8
  %101 = load ptr, ptr %21, align 8, !tbaa !46
  %102 = load i32, ptr %27, align 4, !tbaa !37
  %103 = sext i32 %102 to i64
  %104 = getelementptr inbounds i8, ptr %101, i64 %103
  %105 = load i8, ptr %104, align 1, !tbaa !109
  %106 = zext i8 %105 to i32
  %107 = sub nsw i32 255, %106
  %108 = sdiv i32 %100, %107
  br label %110

109:                                              ; preds = %76
  br label %110

110:                                              ; preds = %109, %93
  %111 = phi i32 [ %108, %93 ], [ 255, %109 ]
  br label %112

112:                                              ; preds = %110, %69
  %113 = phi i32 [ %75, %69 ], [ %111, %110 ]
  %114 = load ptr, ptr %21, align 8, !tbaa !46
  %115 = load i32, ptr %27, align 4, !tbaa !37
  %116 = sext i32 %115 to i64
  %117 = getelementptr inbounds i8, ptr %114, i64 %116
  %118 = load i8, ptr %117, align 1, !tbaa !109
  %119 = zext i8 %118 to i32
  %120 = sub nsw i32 %113, %119
  %121 = sitofp i32 %120 to float
  %122 = load float, ptr %24, align 4, !tbaa !99
  %123 = call nsz float @llvm.fmuladd.f32(float %121, float %122, float %61)
  %124 = fptoui float %123 to i8
  %125 = load ptr, ptr %23, align 8, !tbaa !46
  %126 = load i32, ptr %27, align 4, !tbaa !37
  %127 = sext i32 %126 to i64
  %128 = getelementptr inbounds i8, ptr %125, i64 %127
  store i8 %124, ptr %128, align 1, !tbaa !109
  br label %129

129:                                              ; preds = %112
  %130 = load i32, ptr %27, align 4, !tbaa !37
  %131 = add nsw i32 %130, 1
  store i32 %131, ptr %27, align 4, !tbaa !37
  br label %48, !llvm.loop !130

132:                                              ; preds = %53
  %133 = load i64, ptr %16, align 8, !tbaa !88
  %134 = load ptr, ptr %23, align 8, !tbaa !46
  %135 = getelementptr inbounds i8, ptr %134, i64 %133
  store ptr %135, ptr %23, align 8, !tbaa !46
  %136 = load i64, ptr %12, align 8, !tbaa !88
  %137 = load ptr, ptr %21, align 8, !tbaa !46
  %138 = getelementptr inbounds i8, ptr %137, i64 %136
  store ptr %138, ptr %21, align 8, !tbaa !46
  %139 = load i64, ptr %14, align 8, !tbaa !88
  %140 = load ptr, ptr %22, align 8, !tbaa !46
  %141 = getelementptr inbounds i8, ptr %140, i64 %139
  store ptr %141, ptr %22, align 8, !tbaa !46
  br label %142

142:                                              ; preds = %132
  %143 = load i32, ptr %25, align 4, !tbaa !37
  %144 = add nsw i32 %143, 1
  store i32 %144, ptr %25, align 4, !tbaa !37
  br label %41, !llvm.loop !131

145:                                              ; preds = %46
  call void @llvm.lifetime.end.p0(i64 4, ptr %24) #12
  call void @llvm.lifetime.end.p0(i64 8, ptr %23) #12
  call void @llvm.lifetime.end.p0(i64 8, ptr %22) #12
  call void @llvm.lifetime.end.p0(i64 8, ptr %21) #12
  ret void
}