; Function Attrs: nofree norecurse nosync nounwind memory(argmem: readwrite) uwtable
define internal void @blend_dodge_8bit(ptr noundef readonly captures(none) %0, i64 noundef %1, ptr noundef readonly captures(none) %2, i64 noundef %3, ptr noundef writeonly captures(none) %4, i64 noundef %5, i64 noundef %6, i64 noundef %7, ptr noundef readonly captures(none) %8, ptr readnone captures(none) %9) #6 {
  %11 = getelementptr inbounds nuw i8, ptr %8, i64 8
  %12 = load double, ptr %11, align 8, !tbaa !70
  %13 = fptrunc nsz double %12 to float
  %14 = icmp sgt i64 %7, 0
  %15 = icmp sgt i64 %6, 0
  %or.cond = and i1 %14, %15
  br i1 %or.cond, label %.preheader.us, label %._crit_edge49

.preheader.us:                                    ; preds = %10, %._crit_edge.us
  %indvars.iv53 = phi i64 [ %indvars.iv.next54, %._crit_edge.us ], [ 0, %10 ]
  %.03847.us = phi ptr [ %36, %._crit_edge.us ], [ %4, %10 ]
  %.03946.us = phi ptr [ %38, %._crit_edge.us ], [ %2, %10 ]
  %.04045.us = phi ptr [ %37, %._crit_edge.us ], [ %0, %10 ]
  br label %16

16:                                               ; preds = %.preheader.us, %28
  %indvars.iv = phi i64 [ 0, %.preheader.us ], [ %indvars.iv.next, %28 ]
  %17 = getelementptr inbounds nuw i8, ptr %.04045.us, i64 %indvars.iv
  %18 = load i8, ptr %17, align 1, !tbaa !89
  %19 = uitofp i8 %18 to float
  %20 = icmp eq i8 %18, -1
  br i1 %20, label %28, label %21

21:                                               ; preds = %16
  %22 = getelementptr inbounds nuw i8, ptr %.03946.us, i64 %indvars.iv
  %23 = load i8, ptr %22, align 1, !tbaa !89
  %24 = zext i8 %23 to i16
  %.lhs.trunc.us = shl nuw i16 %24, 8
  %25 = xor i8 %18, -1
  %.rhs.trunc.us = zext i8 %25 to i16
  %26 = udiv i16 %.lhs.trunc.us, %.rhs.trunc.us
  %27 = tail call i16 @llvm.umin.i16(i16 %26, i16 255)
  %spec.select.us = zext nneg i16 %27 to i32
  br label %28

28:                                               ; preds = %21, %16
  %29 = phi i32 [ 255, %16 ], [ %spec.select.us, %21 ]
  %30 = zext i8 %18 to i32
  %31 = sub nsw i32 %29, %30
  %32 = sitofp i32 %31 to float
  %33 = tail call nsz float @llvm.fmuladd.f32(float %32, float %13, float %19)
  %34 = fptoui float %33 to i8
  %35 = getelementptr inbounds nuw i8, ptr %.03847.us, i64 %indvars.iv
  store i8 %34, ptr %35, align 1, !tbaa !89
  %indvars.iv.next = add nuw nsw i64 %indvars.iv, 1
  %exitcond.not = icmp eq i64 %indvars.iv.next, %6
  br i1 %exitcond.not, label %._crit_edge.us, label %16, !llvm.loop !110

._crit_edge.us:                                   ; preds = %28
  %36 = getelementptr inbounds i8, ptr %.03847.us, i64 %5
  %37 = getelementptr inbounds i8, ptr %.04045.us, i64 %1
  %38 = getelementptr inbounds i8, ptr %.03946.us, i64 %3
  %indvars.iv.next54 = add nuw nsw i64 %indvars.iv53, 1
  %exitcond56.not = icmp eq i64 %indvars.iv.next54, %7
  br i1 %exitcond56.not, label %._crit_edge49, label %.preheader.us, !llvm.loop !111

._crit_edge49:                                    ; preds = %._crit_edge.us, %10
  ret void
}